target datalayout = "e-m:e-p270:32:32-p271:32:32-p272:64:64-i64:64-i128:128-f80:128-n8:16:32:64-S128"
target triple = "x86_64-unknown-linux-gnu"

%struct.PropertyInfo = type { ptr, ptr, ptr, i8, ptr, ptr, ptr, ptr, ptr, ptr }
%struct.Property = type { ptr, ptr, i64, i8, i64, i8, %union.anon, i32, ptr, i32, ptr }
%union.anon = type { i64 }
%struct.DeviceClass = type { %struct.ObjectClass, [1 x i64], ptr, ptr, ptr, i8, i8, ptr, ptr, ptr, ptr, ptr }
%struct.ObjectClass = type { ptr, ptr, [4 x ptr], [4 x ptr], ptr, ptr }

@error_abort = external global ptr, align 8
@.str.21 = private unnamed_addr constant [7 x i8] c"device\00", align 1
@.str.26 = private unnamed_addr constant [101 x i8] c"/home/dtcxzyw/WorkSpace/Projects/compilers/llvm-opt-benchmark/bench/qemu/qemu/include/hw/qdev-core.h\00", align 1
@__func__.DEVICE_CLASS = private unnamed_addr constant [13 x i8] c"DEVICE_CLASS\00", align 1

; Function Attrs: nounwind sspstrong uwtable
define internal ptr @qdev_prop_walk(ptr noundef %props, ptr noundef %name) #0 {
entry:
  %retval = alloca ptr, align 8
  %props.addr = alloca ptr, align 8
  %name.addr = alloca ptr, align 8
  store ptr %props, ptr %props.addr, align 8
  store ptr %name, ptr %name.addr, align 8
  %0 = load ptr, ptr %props.addr, align 8
  %tobool = icmp ne ptr %0, null
  br i1 %tobool, label %if.end, label %if.then

if.then:                                          ; preds = %entry
  store ptr null, ptr %retval, align 8
  br label %return

if.end:                                           ; preds = %entry
  br label %while.cond

while.cond:                                       ; preds = %if.end5, %if.end
  %1 = load ptr, ptr %props.addr, align 8
  %name1 = getelementptr inbounds %struct.Property, ptr %1, i32 0, i32 0
  %2 = load ptr, ptr %name1, align 8
  %tobool2 = icmp ne ptr %2, null
  br i1 %tobool2, label %while.body, label %while.end

while.body:                                       ; preds = %while.cond
  %3 = load ptr, ptr %props.addr, align 8
  %name3 = getelementptr inbounds %struct.Property, ptr %3, i32 0, i32 0
  %4 = load ptr, ptr %name3, align 8
  %5 = load ptr, ptr %name.addr, align 8
  %call = call i32 @strcmp(ptr noundef %4, ptr noundef %5) #11
  %cmp = icmp eq i32 %call, 0
  br i1 %cmp, label %if.then4, label %if.end5

if.then4:                                         ; preds = %while.body
  %6 = load ptr, ptr %props.addr, align 8
  store ptr %6, ptr %retval, align 8
  br label %return

if.end5:                                          ; preds = %while.body
  %7 = load ptr, ptr %props.addr, align 8
  %incdec.ptr = getelementptr %struct.Property, ptr %7, i32 1
  store ptr %incdec.ptr, ptr %props.addr, align 8
  br label %while.cond, !llvm.loop !19

while.end:                                        ; preds = %while.cond
  store ptr null, ptr %retval, align 8
  br label %return

return:                                           ; preds = %while.end, %if.then4, %if.then
  %8 = load ptr, ptr %retval, align 8
  ret ptr %8
}

; Function Attrs: nounwind sspstrong uwtable
define internal ptr @DEVICE_CLASS(ptr noundef %klass) #0 {
entry:
  %klass.addr = alloca ptr, align 8
  store ptr %klass, ptr %klass.addr, align 8
  %0 = load ptr, ptr %klass.addr, align 8
  %call = call ptr @object_class_dynamic_cast_assert(ptr noundef %0, ptr noundef @.str.21, ptr noundef @.str.26, i32 noundef 77, ptr noundef @__func__.DEVICE_CLASS)
  ret ptr %call
}

; Function Attrs: nounwind sspstrong uwtable
define internal ptr @qdev_prop_find(ptr noundef %dev, ptr noundef %name) #0 {
entry:
  %retval = alloca ptr, align 8
  %dev.addr = alloca ptr, align 8
  %name.addr = alloca ptr, align 8
  %class = alloca ptr, align 8
  %prop = alloca ptr, align 8
  store ptr %dev, ptr %dev.addr, align 8
  store ptr %name, ptr %name.addr, align 8
  %0 = load ptr, ptr %dev.addr, align 8
  %call = call ptr @object_get_class(ptr noundef %0)
  store ptr %call, ptr %class, align 8
  br label %do.body

do.body:                                          ; preds = %do.cond, %entry
  %1 = load ptr, ptr %class, align 8
  %call1 = call ptr @DEVICE_CLASS(ptr noundef %1)
  %props_ = getelementptr inbounds %struct.DeviceClass, ptr %call1, i32 0, i32 4
  %2 = load ptr, ptr %props_, align 8
  %3 = load ptr, ptr %name.addr, align 8
  %call2 = call ptr @qdev_prop_walk(ptr noundef %2, ptr noundef %3)
  store ptr %call2, ptr %prop, align 8
  %4 = load ptr, ptr %prop, align 8
  %tobool = icmp ne ptr %4, null
  br i1 %tobool, label %if.then, label %if.end

if.then:                                          ; preds = %do.body
  %5 = load ptr, ptr %prop, align 8
  store ptr %5, ptr %retval, align 8
  br label %return

if.end:                                           ; preds = %do.body
  %6 = load ptr, ptr %class, align 8
  %call3 = call ptr @object_class_get_parent(ptr noundef %6)
  store ptr %call3, ptr %class, align 8
  br label %do.cond

do.cond:                                          ; preds = %if.end
  %7 = load ptr, ptr %class, align 8
  %call4 = call ptr @object_class_by_name(ptr noundef @.str.21)
  %cmp = icmp ne ptr %7, %call4
  br i1 %cmp, label %do.body, label %do.end, !llvm.loop !13

do.end:                                           ; preds = %do.cond
  store ptr null, ptr %retval, align 8
  br label %return

return:                                           ; preds = %do.end, %if.then
  %8 = load ptr, ptr %retval, align 8
  ret ptr %8
}

; Function Attrs: nounwind sspstrong uwtable
define dso_local void @qdev_prop_set_enum(ptr noundef %dev, ptr noundef %name, i32 noundef %value) #0 {
entry:
  %dev.addr = alloca ptr, align 8
  %name.addr = alloca ptr, align 8
  %value.addr = alloca i32, align 4
  %prop = alloca ptr, align 8
  store ptr %dev, ptr %dev.addr, align 8
  store ptr %name, ptr %name.addr, align 8
  store i32 %value, ptr %value.addr, align 4
  %0 = load ptr, ptr %dev.addr, align 8
  %1 = load ptr, ptr %name.addr, align 8
  %call = call ptr @qdev_prop_find(ptr noundef %0, ptr noundef %1)
  store ptr %call, ptr %prop, align 8
  %2 = load ptr, ptr %dev.addr, align 8
  %3 = load ptr, ptr %name.addr, align 8
  %4 = load ptr, ptr %prop, align 8
  %info = getelementptr inbounds %struct.Property, ptr %4, i32 0, i32 1
  %5 = load ptr, ptr %info, align 8
  %enum_table = getelementptr inbounds %struct.PropertyInfo, ptr %5, i32 0, i32 2
  %6 = load ptr, ptr %enum_table, align 8
  %7 = load i32, ptr %value.addr, align 4
  %call1 = call ptr @qapi_enum_lookup(ptr noundef %6, i32 noundef %7)
  %call2 = call zeroext i1 @object_property_set_str(ptr noundef %2, ptr noundef %3, ptr noundef %call1, ptr noundef @error_abort)
  ret void
}