; Function Attrs: nounwind sspstrong uwtable
define dso_local void @qdev_prop_set_enum(ptr noundef %dev, ptr noundef %name, i32 noundef %value) local_unnamed_addr #0 {
entry:
  %call.i = tail call ptr @object_get_class(ptr noundef %dev) #9
  br label %do.body.i

do.body.i:                                        ; preds = %if.end.i, %entry
  %class.0.i = phi ptr [ %call.i, %entry ], [ %call3.i, %if.end.i ]
  %call.i.i = tail call ptr @object_class_dynamic_cast_assert(ptr noundef %class.0.i, ptr noundef nonnull @.str.21, ptr noundef nonnull @.str.26, i32 noundef 77, ptr noundef nonnull @__func__.DEVICE_CLASS) #9
  %props_.i = getelementptr inbounds nuw i8, ptr %call.i.i, i64 120
  %0 = load ptr, ptr %props_.i, align 8
  %tobool.not.i.i = icmp eq ptr %0, null
  br i1 %tobool.not.i.i, label %if.end.i, label %while.cond.preheader.i.i

while.cond.preheader.i.i:                         ; preds = %do.body.i
  %1 = load ptr, ptr %0, align 8
  %tobool2.not5.i.i = icmp eq ptr %1, null
  br i1 %tobool2.not5.i.i, label %if.end.i, label %while.body.i.i

while.body.i.i:                                   ; preds = %while.cond.preheader.i.i, %if.end5.i.i
  %2 = phi ptr [ %3, %if.end5.i.i ], [ %1, %while.cond.preheader.i.i ]
  %props.addr.06.i.i = phi ptr [ %incdec.ptr.i.i, %if.end5.i.i ], [ %0, %while.cond.preheader.i.i ]
  %call.i4.i = tail call i32 @strcmp(ptr noundef nonnull dereferenceable(1) %2, ptr noundef nonnull readonly dereferenceable(1) %name) #13
  %cmp.i.i = icmp eq i32 %call.i4.i, 0
  br i1 %cmp.i.i, label %qdev_prop_find.exit, label %if.end5.i.i

if.end5.i.i:                                      ; preds = %while.body.i.i
  %incdec.ptr.i.i = getelementptr i8, ptr %props.addr.06.i.i, i64 88
  %3 = load ptr, ptr %incdec.ptr.i.i, align 8
  %tobool2.not.i.i = icmp eq ptr %3, null
  br i1 %tobool2.not.i.i, label %if.end.i, label %while.body.i.i, !llvm.loop !22

if.end.i:                                         ; preds = %if.end5.i.i, %while.cond.preheader.i.i, %do.body.i
  %call3.i = tail call ptr @object_class_get_parent(ptr noundef %class.0.i) #9
  %call4.i = tail call ptr @object_class_by_name(ptr noundef nonnull @.str.21) #9
  %cmp.not.i = icmp ne ptr %call3.i, %call4.i
  tail call void @llvm.assume(i1 %cmp.not.i)
  br label %do.body.i

qdev_prop_find.exit:                              ; preds = %while.body.i.i
  %info = getelementptr inbounds nuw i8, ptr %props.addr.06.i.i, i64 8
  %4 = load ptr, ptr %info, align 8
  %enum_table = getelementptr inbounds nuw i8, ptr %4, i64 16
  %5 = load ptr, ptr %enum_table, align 8
  %call1 = tail call ptr @qapi_enum_lookup(ptr noundef %5, i32 noundef %value) #9
  %call2 = tail call zeroext i1 @object_property_set_str(ptr noundef %dev, ptr noundef nonnull %name, ptr noundef %call1, ptr noundef nonnull @error_abort) #9
  ret void
}